; Function Attrs: nofree norecurse nosync nounwind memory(argmem: readwrite) uwtable
define internal fastcc void @Abc_TtReadHex(ptr noundef captures(none) %0, ptr noundef readonly captures(none) %1) unnamed_addr #8 {
  %3 = load i8, ptr %1, align 1
  %4 = icmp eq i8 %3, 48
  br i1 %4, label %5, label %9

5:                                                ; preds = %2
  %6 = getelementptr inbounds nuw i8, ptr %1, i64 1
  %7 = load i8, ptr %6, align 1
  %8 = icmp eq i8 %7, 120
  %spec.select.idx = select i1 %8, i64 2, i64 0
  %spec.select = getelementptr inbounds nuw i8, ptr %1, i64 %spec.select.idx
  %.pre = load i8, ptr %spec.select, align 1
  br label %9

9:                                                ; preds = %5, %2
  %10 = phi i8 [ %3, %2 ], [ %.pre, %5 ]
  %.038 = phi ptr [ %1, %2 ], [ %spec.select, %5 ]
  %11 = add i8 %10, -58
  %or.cond.i47 = icmp ult i8 %11, -10
  %12 = and i8 %10, -33
  %13 = add i8 %12, -71
  %14 = icmp ult i8 %13, -6
  %narrow.i.not48 = and i1 %or.cond.i47, %14
  br i1 %narrow.i.not48, label %.lr.ph52.preheader, label %.lr.ph

.lr.ph:                                           ; preds = %9, %.lr.ph
  %indvars.iv = phi i64 [ %indvars.iv.next, %.lr.ph ], [ 0, %9 ]
  %indvars.iv.next = add i64 %indvars.iv, 1
  %15 = getelementptr inbounds nuw i8, ptr %.038, i64 %indvars.iv.next
  %16 = load i8, ptr %15, align 1
  %17 = add i8 %16, -58
  %or.cond.i = icmp ult i8 %17, -10
  %18 = and i8 %16, -33
  %19 = add i8 %18, -71
  %20 = icmp ult i8 %19, -6
  %narrow.i.not = and i1 %or.cond.i, %20
  br i1 %narrow.i.not, label %._crit_edge, label %.lr.ph, !llvm.loop !119

._crit_edge:                                      ; preds = %.lr.ph
  %indvars = trunc i64 %indvars.iv.next to i32
  switch i32 %indvars, label %.thread70 [
    i32 1, label %21
    i32 0, label %.lr.ph52.preheader
  ]

21:                                               ; preds = %._crit_edge
  switch i8 %10, label %.lr.ph52.preheader [
    i8 48, label %22
    i8 70, label %22
    i8 53, label %25
    i8 65, label %25
  ]

22:                                               ; preds = %21, %21
  %23 = icmp ne i8 %10, 48
  %24 = sext i1 %23 to i64
  br label %.sink.split

25:                                               ; preds = %21, %21
  %26 = icmp eq i8 %10, 53
  %27 = select i1 %26, i64 6148914691236517205, i64 -6148914691236517206
  br label %.sink.split

.thread70:                                        ; preds = %._crit_edge
  %28 = add nsw i32 %indvars, -1
  %29 = tail call range(i32 0, 33) i32 @llvm.ctlz.i32(i32 %28, i1 true)
  %.fr82 = freeze i32 %29
  %30 = sub i32 34, %.fr82
  %31 = icmp ult i32 %30, 7
  br i1 %31, label %.lr.ph52.preheader, label %.thread

.thread:                                          ; preds = %.thread70
  %32 = sub i32 28, %.fr82
  %33 = shl nuw i32 1, %32
  %.not83 = icmp eq i32 %.fr82, -3
  br i1 %.not83, label %.preheader, label %.lr.ph52.preheader

.lr.ph52.preheader:                               ; preds = %._crit_edge, %9, %.thread70, %21, %.thread
  %34 = phi i32 [ %33, %.thread ], [ 1, %21 ], [ 1, %.thread70 ], [ 1, %9 ], [ 1, %._crit_edge ]
  %35 = phi i32 [ %30, %.thread ], [ 2, %21 ], [ %30, %.thread70 ], [ 2, %9 ], [ 2, %._crit_edge ]
  %.0.lcssa6977 = phi i32 [ %indvars, %.thread ], [ 1, %21 ], [ %indvars, %.thread70 ], [ 0, %9 ], [ %indvars, %._crit_edge ]
  %36 = zext nneg i32 %34 to i64
  %37 = shl nuw nsw i64 %36, 3
  tail call void @llvm.memset.p0.i64(ptr noundef nonnull align 8 dereferenceable(1) %0, i8 0, i64 %37, i1 false)
  br label %.preheader

.preheader:                                       ; preds = %.lr.ph52.preheader, %.thread
  %38 = phi i32 [ %35, %.lr.ph52.preheader ], [ %30, %.thread ]
  %.0.lcssa6976 = phi i32 [ %.0.lcssa6977, %.lr.ph52.preheader ], [ %indvars, %.thread ]
  %.not = icmp eq i32 %.0.lcssa6976, 0
  br i1 %.not, label %._crit_edge55, label %.lr.ph54.preheader

.lr.ph54.preheader:                               ; preds = %.preheader
  %39 = sext i32 %.0.lcssa6976 to i64
  %wide.trip.count = zext i32 %.0.lcssa6976 to i64
  %40 = getelementptr i8, ptr %.038, i64 %39
  br label %.lr.ph54

.lr.ph54:                                         ; preds = %.lr.ph54.preheader, %Abc_TtReadHexDigit.exit
  %indvars.iv63 = phi i64 [ 0, %.lr.ph54.preheader ], [ %indvars.iv.next64, %Abc_TtReadHexDigit.exit ]
  %41 = xor i64 %indvars.iv63, -1
  %42 = getelementptr i8, ptr %40, i64 %41
  %43 = load i8, ptr %42, align 1
  %44 = sext i8 %43 to i32
  %45 = add i8 %43, -48
  %or.cond.i42 = icmp ult i8 %45, 10
  br i1 %or.cond.i42, label %46, label %48

46:                                               ; preds = %.lr.ph54
  %47 = add nsw i32 %44, -48
  br label %Abc_TtReadHexDigit.exit

48:                                               ; preds = %.lr.ph54
  %49 = add i8 %43, -65
  %or.cond5.i = icmp ult i8 %49, 6
  br i1 %or.cond5.i, label %50, label %52

50:                                               ; preds = %48
  %51 = add nsw i32 %44, -55
  br label %Abc_TtReadHexDigit.exit

52:                                               ; preds = %48
  %53 = add i8 %43, -97
  %or.cond8.i = icmp ult i8 %53, 6
  %54 = add nsw i32 %44, -87
  %spec.select.i = select i1 %or.cond8.i, i32 %54, i32 -1
  br label %Abc_TtReadHexDigit.exit

Abc_TtReadHexDigit.exit:                          ; preds = %46, %50, %52
  %.0.i = phi i32 [ %47, %46 ], [ %51, %50 ], [ %spec.select.i, %52 ]
  %55 = sext i32 %.0.i to i64
  %56 = shl i64 %indvars.iv63, 2
  %57 = and i64 %56, 60
  %58 = shl i64 %55, %57
  %59 = lshr i64 %indvars.iv63, 4
  %60 = and i64 %59, 268435455
  %61 = getelementptr inbounds nuw i64, ptr %0, i64 %60
  %62 = load i64, ptr %61, align 8
  %63 = or i64 %58, %62
  store i64 %63, ptr %61, align 8
  %indvars.iv.next64 = add nuw nsw i64 %indvars.iv63, 1
  %exitcond.not = icmp eq i64 %indvars.iv.next64, %wide.trip.count
  br i1 %exitcond.not, label %._crit_edge55, label %.lr.ph54, !llvm.loop !120

._crit_edge55:                                    ; preds = %Abc_TtReadHexDigit.exit, %.preheader
  %64 = icmp slt i32 %38, 6
  br i1 %64, label %65, label %83

65:                                               ; preds = %._crit_edge55
  %66 = load i64, ptr %0, align 8
  %.0.i43 = tail call i32 @llvm.umax.i32(i32 range(i32 -2147483648, 6) %38, i32 1)
  %67 = icmp ult i32 %38, 2
  %68 = and i64 %66, 3
  %69 = mul nuw nsw i64 %68, 5
  %.126.i = select i1 %67, i64 %69, i64 %66
  %.1.i = select i1 %67, i32 2, i32 %.0.i43
  %70 = icmp eq i32 %.1.i, 2
  %71 = and i64 %.126.i, 15
  %72 = mul nuw nsw i64 %71, 17
  %.227.i = select i1 %70, i64 %72, i64 %.126.i
  %.2.i = select i1 %70, i32 3, i32 %.1.i
  %73 = icmp eq i32 %.2.i, 3
  %74 = and i64 %.227.i, 255
  %75 = mul nuw nsw i64 %74, 257
  %.328.i = select i1 %73, i64 %75, i64 %.227.i
  %.3.i = select i1 %73, i32 4, i32 %.2.i
  %76 = icmp eq i32 %.3.i, 4
  %77 = and i64 %.328.i, 65535
  %78 = mul nuw nsw i64 %77, 65537
  %.429.i = select i1 %76, i64 %78, i64 %.328.i
  %79 = and i32 %.3.i, -2
  %80 = icmp eq i32 %79, 4
  %81 = and i64 %.429.i, 4294967295
  %82 = mul nuw i64 %81, 4294967297
  %.5.i = select i1 %80, i64 %82, i64 %.429.i
  br label %.sink.split

.sink.split:                                      ; preds = %22, %25, %65
  %.5.i.sink = phi i64 [ %.5.i, %65 ], [ %27, %25 ], [ %24, %22 ]
  store i64 %.5.i.sink, ptr %0, align 8
  br label %83

83:                                               ; preds = %.sink.split, %._crit_edge55
  ret void
}